target datalayout = "e-m:e-p270:32:32-p271:32:32-p272:64:64-i64:64-i128:128-f80:128-n8:16:32:64-S128"
target triple = "x86_64-pc-linux-gnu"

%"class.ZXing::Content" = type <{ %"class.ZXing::ByteArray", %"class.std::vector.0", %"struct.ZXing::SymbologyIdentifier", i8, i8, [2 x i8] }>
%"class.ZXing::ByteArray" = type { %"class.std::vector" }
%"class.std::vector" = type { %"struct.std::_Vector_base" }
%"struct.std::_Vector_base" = type { %"struct.std::_Vector_base<unsigned char, std::allocator<unsigned char>>::_Vector_impl" }
%"struct.std::_Vector_base<unsigned char, std::allocator<unsigned char>>::_Vector_impl" = type { %"struct.std::_Vector_base<unsigned char, std::allocator<unsigned char>>::_Vector_impl_data" }
%"struct.std::_Vector_base<unsigned char, std::allocator<unsigned char>>::_Vector_impl_data" = type { ptr, ptr, ptr }
%"class.std::vector.0" = type { %"struct.std::_Vector_base.1" }
%"struct.std::_Vector_base.1" = type { %"struct.std::_Vector_base<ZXing::Content::Encoding, std::allocator<ZXing::Content::Encoding>>::_Vector_impl" }
%"struct.std::_Vector_base<ZXing::Content::Encoding, std::allocator<ZXing::Content::Encoding>>::_Vector_impl" = type { %"struct.std::_Vector_base<ZXing::Content::Encoding, std::allocator<ZXing::Content::Encoding>>::_Vector_impl_data" }
%"struct.std::_Vector_base<ZXing::Content::Encoding, std::allocator<ZXing::Content::Encoding>>::_Vector_impl_data" = type { ptr, ptr, ptr }
%"struct.ZXing::SymbologyIdentifier" = type { i8, i8, i8, i8 }
%"class.std::__cxx11::basic_string" = type { %"struct.std::__cxx11::basic_string<char>::_Alloc_hider", i64, %union.anon }
%"struct.std::__cxx11::basic_string<char>::_Alloc_hider" = type { ptr }
%union.anon = type { i64, [8 x i8] }
%struct._Save_errno.25 = type { i32 }

@.str.11 = private unnamed_addr constant [6 x i8] c"stoll\00", align 1

; Function Attrs: mustprogress nounwind uwtable
define linkonce_odr noundef zeroext i1 @_ZZN9__gnu_cxx6__stoaIxxcJiEEET0_PFT_PKT1_PPS3_DpT2_EPKcS5_PmS9_EN10_Range_chk6_S_chkExSt17integral_constantIbLb0EE(i64 noundef %0) #3 comdat align 2 {
  %2 = alloca i64, align 8
  store i64 %0, ptr %2, align 8
  ret i1 false
}

; Function Attrs: mustprogress nounwind uwtable
define linkonce_odr void @_ZZN9__gnu_cxx6__stoaIxxcJiEEET0_PFT_PKT1_PPS3_DpT2_EPKcS5_PmS9_EN11_Save_errnoD2Ev(ptr noundef nonnull align 4 dereferenceable(4) %0) unnamed_addr #3 comdat align 2 {
  %2 = alloca ptr, align 8
  store ptr %0, ptr %2, align 8
  %3 = load ptr, ptr %2, align 8
  %4 = call ptr @__errno_location() #21
  %5 = load i32, ptr %4, align 4
  %6 = icmp eq i32 %5, 0
  br i1 %6, label %7, label %11

7:                                                ; preds = %1
  %8 = getelementptr inbounds %struct._Save_errno.25, ptr %3, i32 0, i32 0
  %9 = load i32, ptr %8, align 4
  %10 = call ptr @__errno_location() #21
  store i32 %9, ptr %10, align 4
  br label %11

11:                                               ; preds = %7, %1
  ret void
}

; Function Attrs: mustprogress nounwind uwtable
define linkonce_odr void @_ZZN9__gnu_cxx6__stoaIxxcJiEEET0_PFT_PKT1_PPS3_DpT2_EPKcS5_PmS9_EN11_Save_errnoC2Ev(ptr noundef nonnull align 4 dereferenceable(4) %0) unnamed_addr #3 comdat align 2 {
  %2 = alloca ptr, align 8
  store ptr %0, ptr %2, align 8
  %3 = load ptr, ptr %2, align 8
  %4 = getelementptr inbounds %struct._Save_errno.25, ptr %3, i32 0, i32 0
  %5 = call ptr @__errno_location() #21
  %6 = load i32, ptr %5, align 4
  store i32 %6, ptr %4, align 4
  %7 = call ptr @__errno_location() #21
  store i32 0, ptr %7, align 4
  ret void
}

; Function Attrs: mustprogress uwtable
define linkonce_odr noundef i64 @_ZN9__gnu_cxx6__stoaIxxcJiEEET0_PFT_PKT1_PPS3_DpT2_EPKcS5_PmS9_(ptr noundef %0, ptr noundef %1, ptr noundef %2, ptr noundef %3, i32 noundef %4) #0 comdat personality ptr @__gxx_personality_v0 {
  %6 = alloca ptr, align 8
  %7 = alloca ptr, align 8
  %8 = alloca ptr, align 8
  %9 = alloca ptr, align 8
  %10 = alloca i32, align 4
  %11 = alloca i64, align 8
  %12 = alloca ptr, align 8
  %13 = alloca %struct._Save_errno.25, align 4
  %14 = alloca i64, align 8
  %15 = alloca ptr, align 8
  %16 = alloca i32, align 4
  store ptr %0, ptr %6, align 8
  store ptr %1, ptr %7, align 8
  store ptr %2, ptr %8, align 8
  store ptr %3, ptr %9, align 8
  store i32 %4, ptr %10, align 4
  call void @_ZZN9__gnu_cxx6__stoaIxxcJiEEET0_PFT_PKT1_PPS3_DpT2_EPKcS5_PmS9_EN11_Save_errnoC2Ev(ptr noundef nonnull align 4 dereferenceable(4) %13)
  %17 = load ptr, ptr %6, align 8
  %18 = load ptr, ptr %8, align 8
  %19 = load i32, ptr %10, align 4
  %20 = invoke noundef i64 %17(ptr noundef %18, ptr noundef %12, i32 noundef %19)
          to label %21 unwind label %28

21:                                               ; preds = %5
  store i64 %20, ptr %14, align 8
  %22 = load ptr, ptr %12, align 8
  %23 = load ptr, ptr %8, align 8
  %24 = icmp eq ptr %22, %23
  br i1 %24, label %25, label %32

25:                                               ; preds = %21
  %26 = load ptr, ptr %7, align 8
  invoke void @_ZSt24__throw_invalid_argumentPKc(ptr noundef %26) #17
          to label %27 unwind label %28

27:                                               ; preds = %25
  unreachable

28:                                               ; preds = %42, %36, %25, %5
  %29 = landingpad { ptr, i32 }
          cleanup
  %30 = extractvalue { ptr, i32 } %29, 0
  store ptr %30, ptr %15, align 8
  %31 = extractvalue { ptr, i32 } %29, 1
  store i32 %31, ptr %16, align 4
  call void @_ZZN9__gnu_cxx6__stoaIxxcJiEEET0_PFT_PKT1_PPS3_DpT2_EPKcS5_PmS9_EN11_Save_errnoD2Ev(ptr noundef nonnull align 4 dereferenceable(4) %13) #10
  br label %60

32:                                               ; preds = %21
  %33 = call ptr @__errno_location() #21
  %34 = load i32, ptr %33, align 4
  %35 = icmp eq i32 %34, 34
  br i1 %35, label %40, label %36

36:                                               ; preds = %32
  %37 = load i64, ptr %14, align 8
  %38 = invoke noundef zeroext i1 @_ZZN9__gnu_cxx6__stoaIxxcJiEEET0_PFT_PKT1_PPS3_DpT2_EPKcS5_PmS9_EN10_Range_chk6_S_chkExSt17integral_constantIbLb0EE(i64 noundef %37)
          to label %39 unwind label %28

39:                                               ; preds = %36
  br label %40

40:                                               ; preds = %39, %32
  %41 = phi i1 [ true, %32 ], [ %38, %39 ]
  br i1 %41, label %42, label %45

42:                                               ; preds = %40
  %43 = load ptr, ptr %7, align 8
  invoke void @_ZSt20__throw_out_of_rangePKc(ptr noundef %43) #17
          to label %44 unwind label %28

44:                                               ; preds = %42
  unreachable

45:                                               ; preds = %40
  %46 = load i64, ptr %14, align 8
  store i64 %46, ptr %11, align 8
  br label %47

47:                                               ; preds = %45
  br label %48

48:                                               ; preds = %47
  %49 = load ptr, ptr %9, align 8
  %50 = icmp ne ptr %49, null
  br i1 %50, label %51, label %58

51:                                               ; preds = %48
  %52 = load ptr, ptr %12, align 8
  %53 = load ptr, ptr %8, align 8
  %54 = ptrtoint ptr %52 to i64
  %55 = ptrtoint ptr %53 to i64
  %56 = sub i64 %54, %55
  %57 = load ptr, ptr %9, align 8
  store i64 %56, ptr %57, align 8
  br label %58

58:                                               ; preds = %51, %48
  %59 = load i64, ptr %11, align 8
  call void @_ZZN9__gnu_cxx6__stoaIxxcJiEEET0_PFT_PKT1_PPS3_DpT2_EPKcS5_PmS9_EN11_Save_errnoD2Ev(ptr noundef nonnull align 4 dereferenceable(4) %13) #10
  ret i64 %59

60:                                               ; preds = %28
  %61 = load ptr, ptr %15, align 8
  %62 = load i32, ptr %16, align 4
  %63 = insertvalue { ptr, i32 } poison, ptr %61, 0
  %64 = insertvalue { ptr, i32 } %63, i32 %62, 1
  resume { ptr, i32 } %64
}

; Function Attrs: mustprogress uwtable
define linkonce_odr noundef i64 @_ZNSt7__cxx115stollERKNS_12basic_stringIcSt11char_traitsIcESaIcEEEPmi(ptr noundef nonnull align 8 dereferenceable(32) %0, ptr noundef %1, i32 noundef %2) #0 comdat {
  %4 = alloca ptr, align 8
  %5 = alloca ptr, align 8
  %6 = alloca i32, align 4
  store ptr %0, ptr %4, align 8
  store ptr %1, ptr %5, align 8
  store i32 %2, ptr %6, align 4
  %7 = load ptr, ptr %4, align 8
  %8 = call noundef ptr @_ZNKSt7__cxx1112basic_stringIcSt11char_traitsIcESaIcEE5c_strEv(ptr noundef nonnull align 8 dereferenceable(32) %7) #10
  %9 = load ptr, ptr %5, align 8
  %10 = load i32, ptr %6, align 4
  %11 = call noundef i64 @_ZN9__gnu_cxx6__stoaIxxcJiEEET0_PFT_PKT1_PPS3_DpT2_EPKcS5_PmS9_(ptr noundef @strtoll, ptr noundef @.str.11, ptr noundef %8, ptr noundef %9, i32 noundef %10)
  ret i64 %11
}

; Function Attrs: mustprogress uwtable
define linkonce_odr void @_ZNK5ZXing7Content4utf8B5cxx11Ev(ptr dead_on_unwind noalias writable sret(%"class.std::__cxx11::basic_string") align 8 %0, ptr noundef nonnull align 8 dereferenceable(54) %1) #0 comdat align 2 {
  %3 = alloca ptr, align 8
  %4 = alloca ptr, align 8
  store ptr %0, ptr %3, align 8
  store ptr %1, ptr %4, align 8
  %5 = load ptr, ptr %4, align 8
  call void @_ZNK5ZXing7Content6renderB5cxx11Eb(ptr dead_on_unwind writable sret(%"class.std::__cxx11::basic_string") align 8 %0, ptr noundef nonnull align 8 dereferenceable(54) %5, i1 noundef zeroext false)
  ret void
}

; Function Attrs: mustprogress uwtable
define internal noundef i32 @_ZN5ZXing6Pdf417L31DecodeMacroOptionalNumericFieldERKSt6vectorIiSaIiEEiRm(ptr noundef nonnull align 8 dereferenceable(24) %0, i32 noundef %1, ptr noundef nonnull align 8 dereferenceable(8) %2) #0 personality ptr @__gxx_personality_v0 {
  %4 = alloca ptr, align 8
  %5 = alloca i32, align 4
  %6 = alloca ptr, align 8
  %7 = alloca %"class.ZXing::Content", align 8
  %8 = alloca ptr, align 8
  %9 = alloca i32, align 4
  %10 = alloca %"class.std::__cxx11::basic_string", align 8
  store ptr %0, ptr %4, align 8
  store i32 %1, ptr %5, align 4
  store ptr %2, ptr %6, align 8
  call void @_ZN5ZXing7ContentC1Ev(ptr noundef nonnull align 8 dereferenceable(54) %7)
  %11 = getelementptr inbounds %"class.ZXing::Content", ptr %7, i32 0, i32 3
  store i8 17, ptr %11, align 4
  %12 = load ptr, ptr %4, align 8
  %13 = load i32, ptr %5, align 4
  %14 = invoke noundef i32 @_ZN5ZXing6Pdf417L17NumericCompactionERKSt6vectorIiSaIiEEiRNS_7ContentE(ptr noundef nonnull align 8 dereferenceable(24) %12, i32 noundef %13, ptr noundef nonnull align 8 dereferenceable(54) %7)
          to label %15 unwind label %21

15:                                               ; preds = %3
  store i32 %14, ptr %5, align 4
  invoke void @_ZNK5ZXing7Content4utf8B5cxx11Ev(ptr dead_on_unwind writable sret(%"class.std::__cxx11::basic_string") align 8 %10, ptr noundef nonnull align 8 dereferenceable(54) %7)
          to label %16 unwind label %21

16:                                               ; preds = %15
  %17 = invoke noundef i64 @_ZNSt7__cxx115stollERKNS_12basic_stringIcSt11char_traitsIcESaIcEEEPmi(ptr noundef nonnull align 8 dereferenceable(32) %10, ptr noundef null, i32 noundef 10)
          to label %18 unwind label %25

18:                                               ; preds = %16
  %19 = load ptr, ptr %6, align 8
  store i64 %17, ptr %19, align 8
  call void @_ZNSt7__cxx1112basic_stringIcSt11char_traitsIcESaIcEED1Ev(ptr noundef nonnull align 8 dereferenceable(32) %10) #10
  %20 = load i32, ptr %5, align 4
  call void @_ZN5ZXing7ContentD2Ev(ptr noundef nonnull align 8 dereferenceable(54) %7) #10
  ret i32 %20

21:                                               ; preds = %15, %3
  %22 = landingpad { ptr, i32 }
          cleanup
  %23 = extractvalue { ptr, i32 } %22, 0
  store ptr %23, ptr %8, align 8
  %24 = extractvalue { ptr, i32 } %22, 1
  store i32 %24, ptr %9, align 4
  br label %29

25:                                               ; preds = %16
  %26 = landingpad { ptr, i32 }
          cleanup
  %27 = extractvalue { ptr, i32 } %26, 0
  store ptr %27, ptr %8, align 8
  %28 = extractvalue { ptr, i32 } %26, 1
  store i32 %28, ptr %9, align 4
  call void @_ZNSt7__cxx1112basic_stringIcSt11char_traitsIcESaIcEED1Ev(ptr noundef nonnull align 8 dereferenceable(32) %10) #10
  br label %29

29:                                               ; preds = %25, %21
  call void @_ZN5ZXing7ContentD2Ev(ptr noundef nonnull align 8 dereferenceable(54) %7) #10
  br label %30

30:                                               ; preds = %29
  %31 = load ptr, ptr %8, align 8
  %32 = load i32, ptr %9, align 4
  %33 = insertvalue { ptr, i32 } poison, ptr %31, 0
  %34 = insertvalue { ptr, i32 } %33, i32 %32, 1
  resume { ptr, i32 } %34
}