; Function Attrs: mustprogress uwtable
define internal fastcc noundef i32 @_ZN5ZXing6Pdf417L31DecodeMacroOptionalNumericFieldERKSt6vectorIiSaIiEEiRm(ptr nocapture noundef nonnull readonly align 8 dereferenceable(24) %0, i32 noundef %1, ptr nocapture noundef nonnull writeonly align 8 dereferenceable(8) %2) unnamed_addr #0 personality ptr @__gxx_personality_v0 {
  %4 = alloca ptr, align 8
  %5 = alloca %"class.ZXing::Content", align 8
  %6 = alloca %"class.std::__cxx11::basic_string", align 8
  call void @_ZN5ZXing7ContentC1Ev(ptr noundef nonnull align 8 dereferenceable(54) %5)
  %7 = getelementptr inbounds i8, ptr %5, i64 52
  store i8 17, ptr %7, align 4
  %8 = invoke fastcc noundef i32 @_ZN5ZXing6Pdf417L17NumericCompactionERKSt6vectorIiSaIiEEiRNS_7ContentE(ptr noundef nonnull align 8 dereferenceable(24) %0, i32 noundef %1, ptr noundef nonnull align 8 dereferenceable(54) %5)
          to label %9 unwind label %33

9:                                                ; preds = %3
  invoke void @_ZNK5ZXing7Content6renderB5cxx11Eb(ptr dead_on_unwind nonnull writable sret(%"class.std::__cxx11::basic_string") align 8 %6, ptr noundef nonnull align 8 dereferenceable(54) %5, i1 noundef zeroext false)
          to label %_ZNK5ZXing7Content4utf8B5cxx11Ev.exit unwind label %33

_ZNK5ZXing7Content4utf8B5cxx11Ev.exit:            ; preds = %9
  %10 = call noundef ptr @_ZNKSt7__cxx1112basic_stringIcSt11char_traitsIcESaIcEE5c_strEv(ptr noundef nonnull align 8 dereferenceable(32) %6) #20
  call void @llvm.lifetime.start.p0(i64 8, ptr nonnull %4)
  %11 = tail call ptr @__errno_location() #23
  %12 = load i32, ptr %11, align 4
  store i32 0, ptr %11, align 4
  %13 = call noundef i64 @strtoll(ptr noundef %10, ptr noundef nonnull %4, i32 noundef 10)
  %14 = load ptr, ptr %4, align 8
  %15 = icmp eq ptr %14, %10
  br i1 %15, label %16, label %23

16:                                               ; preds = %_ZNK5ZXing7Content4utf8B5cxx11Ev.exit
  invoke void @_ZSt24__throw_invalid_argumentPKc(ptr noundef nonnull @.str.11) #21
          to label %17 unwind label %18

17:                                               ; preds = %16
  unreachable

18:                                               ; preds = %.critedge.i.i, %16
  %19 = landingpad { ptr, i32 }
          cleanup
  %20 = load i32, ptr %11, align 4
  %21 = icmp eq i32 %20, 0
  br i1 %21, label %22, label %.body

22:                                               ; preds = %18
  store i32 %12, ptr %11, align 4
  br label %.body

23:                                               ; preds = %_ZNK5ZXing7Content4utf8B5cxx11Ev.exit
  %24 = load i32, ptr %11, align 4
  switch i32 %24, label %27 [
    i32 34, label %.critedge.i.i
    i32 0, label %26
  ]

.critedge.i.i:                                    ; preds = %23
  invoke void @_ZSt20__throw_out_of_rangePKc(ptr noundef nonnull @.str.11) #21
          to label %25 unwind label %18

25:                                               ; preds = %.critedge.i.i
  unreachable

26:                                               ; preds = %23
  store i32 %12, ptr %11, align 4
  br label %27

27:                                               ; preds = %23, %26
  call void @llvm.lifetime.end.p0(i64 8, ptr nonnull %4)
  store i64 %13, ptr %2, align 8
  call void @_ZNSt7__cxx1112basic_stringIcSt11char_traitsIcESaIcEED1Ev(ptr noundef nonnull align 8 dereferenceable(32) %6) #20
  %28 = getelementptr inbounds i8, ptr %5, i64 24
  %29 = load ptr, ptr %28, align 8
  %.not.i.i.i.i = icmp eq ptr %29, null
  br i1 %.not.i.i.i.i, label %_ZNSt6vectorIN5ZXing7Content8EncodingESaIS2_EED2Ev.exit.i, label %30

30:                                               ; preds = %27
  call void @_ZdlPv(ptr noundef nonnull %29) #22
  br label %_ZNSt6vectorIN5ZXing7Content8EncodingESaIS2_EED2Ev.exit.i

_ZNSt6vectorIN5ZXing7Content8EncodingESaIS2_EED2Ev.exit.i: ; preds = %30, %27
  %31 = load ptr, ptr %5, align 8
  %.not.i.i.i.i.i = icmp eq ptr %31, null
  br i1 %.not.i.i.i.i.i, label %_ZN5ZXing7ContentD2Ev.exit, label %32

32:                                               ; preds = %_ZNSt6vectorIN5ZXing7Content8EncodingESaIS2_EED2Ev.exit.i
  call void @_ZdlPv(ptr noundef nonnull %31) #22
  br label %_ZN5ZXing7ContentD2Ev.exit

_ZN5ZXing7ContentD2Ev.exit:                       ; preds = %_ZNSt6vectorIN5ZXing7Content8EncodingESaIS2_EED2Ev.exit.i, %32
  ret i32 %8

33:                                               ; preds = %9, %3
  %34 = landingpad { ptr, i32 }
          cleanup
  br label %35

.body:                                            ; preds = %18, %22
  call void @_ZNSt7__cxx1112basic_stringIcSt11char_traitsIcESaIcEED1Ev(ptr noundef nonnull align 8 dereferenceable(32) %6) #20
  br label %35

35:                                               ; preds = %.body, %33
  %.pn = phi { ptr, i32 } [ %19, %.body ], [ %34, %33 ]
  call void @_ZN5ZXing7ContentD2Ev(ptr noundef nonnull align 8 dereferenceable(54) %5) #20
  resume { ptr, i32 } %.pn
}